; ModuleID = '8/1358.c'
source_filename = "8/1358.c"
target datalayout = "e-m:e-p270:32:32-p271:32:32-p272:64:64-i64:64-f80:128-n8:16:32:64-S128"
target triple = "x86_64-pc-linux-gnu"

@.str = private unnamed_addr constant [6 x i8] c"%d %d\00", align 1
@.str.1 = private unnamed_addr constant [3 x i8] c"%d\00", align 1
@.str.2 = private unnamed_addr constant [2 x i8] c" \00", align 1
@.str.3 = private unnamed_addr constant [4 x i8] c"%d \00", align 1

; Function Attrs: noinline nounwind uwtable
define dso_local i32 @main() #0 {
  %1 = alloca i32, align 4
  %2 = alloca i32, align 4
  %3 = call i32 (i8*, ...) @__isoc99_scanf(i8* getelementptr inbounds ([6 x i8], [6 x i8]* @.str, i64 0, i64 0), i32* %1, i32* %2)
  %4 = load i32, i32* %1, align 4
  %5 = load i32, i32* %2, align 4
  %6 = call i32 @input(i32 %4, i32 %5)
  ret i32 0
}

declare dso_local i32 @__isoc99_scanf(i8*, ...) #1

; Function Attrs: noinline nounwind uwtable
define dso_local i32 @input(i32 %0, i32 %1) #0 {
  %3 = alloca i32, align 4
  %4 = alloca i32, align 4
  %5 = alloca i32, align 4
  %6 = alloca [1000 x i32], align 16
  %7 = alloca [1000 x i32], align 16
  %8 = alloca i32, align 4
  %9 = alloca i32, align 4
  store i32 %0, i32* %4, align 4
  store i32 %1, i32* %5, align 4
  store i32 0, i32* %8, align 4
  br label %10

10:                                               ; preds = %19, %2
  %11 = load i32, i32* %8, align 4
  %12 = load i32, i32* %4, align 4
  %13 = icmp slt i32 %11, %12
  br i1 %13, label %14, label %22

14:                                               ; preds = %10
  %15 = load i32, i32* %8, align 4
  %16 = sext i32 %15 to i64
  %17 = getelementptr inbounds [1000 x i32], [1000 x i32]* %6, i64 0, i64 %16
  %18 = call i32 (i8*, ...) @__isoc99_scanf(i8* getelementptr inbounds ([3 x i8], [3 x i8]* @.str.1, i64 0, i64 0), i32* %17)
  br label %19

19:                                               ; preds = %14
  %20 = load i32, i32* %8, align 4
  %21 = add nsw i32 %20, 1
  store i32 %21, i32* %8, align 4
  br label %10

22:                                               ; preds = %10
  store i32 0, i32* %9, align 4
  br label %23

23:                                               ; preds = %32, %22
  %24 = load i32, i32* %9, align 4
  %25 = load i32, i32* %5, align 4
  %26 = icmp slt i32 %24, %25
  br i1 %26, label %27, label %35

27:                                               ; preds = %23
  %28 = load i32, i32* %9, align 4
  %29 = sext i32 %28 to i64
  %30 = getelementptr inbounds [1000 x i32], [1000 x i32]* %7, i64 0, i64 %29
  %31 = call i32 (i8*, ...) @__isoc99_scanf(i8* getelementptr inbounds ([3 x i8], [3 x i8]* @.str.1, i64 0, i64 0), i32* %30)
  br label %32

32:                                               ; preds = %27
  %33 = load i32, i32* %9, align 4
  %34 = add nsw i32 %33, 1
  store i32 %34, i32* %9, align 4
  br label %23

35:                                               ; preds = %23
  %36 = getelementptr inbounds [1000 x i32], [1000 x i32]* %6, i64 0, i64 0
  %37 = load i32, i32* %4, align 4
  %38 = call i32 @sort(i32* %36, i32 %37)
  %39 = call i32 (i8*, ...) @printf(i8* getelementptr inbounds ([2 x i8], [2 x i8]* @.str.2, i64 0, i64 0))
  %40 = getelementptr inbounds [1000 x i32], [1000 x i32]* %7, i64 0, i64 0
  %41 = load i32, i32* %5, align 4
  %42 = call i32 @sort(i32* %40, i32 %41)
  %43 = load i32, i32* %3, align 4
  ret i32 %43
}

; Function Attrs: noinline nounwind uwtable
define dso_local i32 @sort(i32* %0, i32 %1) #0 {
  %3 = alloca i32, align 4
  %4 = alloca i32*, align 8
  %5 = alloca i32, align 4
  %6 = alloca i32, align 4
  %7 = alloca i32, align 4
  %8 = alloca i32, align 4
  %9 = alloca i32, align 4
  store i32* %0, i32** %4, align 8
  store i32 %1, i32* %5, align 4
  store i32 0, i32* %7, align 4
  br label %10

10:                                               ; preds = %59, %2
  %11 = load i32, i32* %7, align 4
  %12 = load i32, i32* %5, align 4
  %13 = sub nsw i32 %12, 1
  %14 = icmp slt i32 %11, %13
  br i1 %14, label %15, label %62

15:                                               ; preds = %10
  %16 = load i32, i32* %7, align 4
  %17 = add nsw i32 %16, 1
  store i32 %17, i32* %8, align 4
  br label %18

18:                                               ; preds = %55, %15
  %19 = load i32, i32* %8, align 4
  %20 = load i32, i32* %5, align 4
  %21 = icmp slt i32 %19, %20
  br i1 %21, label %22, label %58

22:                                               ; preds = %18
  %23 = load i32*, i32** %4, align 8
  %24 = load i32, i32* %7, align 4
  %25 = sext i32 %24 to i64
  %26 = getelementptr inbounds i32, i32* %23, i64 %25
  %27 = load i32, i32* %26, align 4
  %28 = load i32*, i32** %4, align 8
  %29 = load i32, i32* %8, align 4
  %30 = sext i32 %29 to i64
  %31 = getelementptr inbounds i32, i32* %28, i64 %30
  %32 = load i32, i32* %31, align 4
  %33 = icmp sgt i32 %27, %32
  br i1 %33, label %34, label %54

34:                                               ; preds = %22
  %35 = load i32*, i32** %4, align 8
  %36 = load i32, i32* %7, align 4
  %37 = sext i32 %36 to i64
  %38 = getelementptr inbounds i32, i32* %35, i64 %37
  %39 = load i32, i32* %38, align 4
  store i32 %39, i32* %6, align 4
  %40 = load i32*, i32** %4, align 8
  %41 = load i32, i32* %8, align 4
  %42 = sext i32 %41 to i64
  %43 = getelementptr inbounds i32, i32* %40, i64 %42
  %44 = load i32, i32* %43, align 4
  %45 = load i32*, i32** %4, align 8
  %46 = load i32, i32* %7, align 4
  %47 = sext i32 %46 to i64
  %48 = getelementptr inbounds i32, i32* %45, i64 %47
  store i32 %44, i32* %48, align 4
  %49 = load i32, i32* %6, align 4
  %50 = load i32*, i32** %4, align 8
  %51 = load i32, i32* %8, align 4
  %52 = sext i32 %51 to i64
  %53 = getelementptr inbounds i32, i32* %50, i64 %52
  store i32 %49, i32* %53, align 4
  br label %54

54:                                               ; preds = %34, %22
  br label %55

55:                                               ; preds = %54
  %56 = load i32, i32* %8, align 4
  %57 = add nsw i32 %56, 1
  store i32 %57, i32* %8, align 4
  br label %18

58:                                               ; preds = %18
  br label %59

59:                                               ; preds = %58
  %60 = load i32, i32* %7, align 4
  %61 = add nsw i32 %60, 1
  store i32 %61, i32* %7, align 4
  br label %10

62:                                               ; preds = %10
  store i32 0, i32* %9, align 4
  br label %63

63:                                               ; preds = %75, %62
  %64 = load i32, i32* %9, align 4
  %65 = load i32, i32* %5, align 4
  %66 = sub nsw i32 %65, 1
  %67 = icmp slt i32 %64, %66
  br i1 %67, label %68, label %78

68:                                               ; preds = %63
  %69 = load i32*, i32** %4, align 8
  %70 = load i32, i32* %9, align 4
  %71 = sext i32 %70 to i64
  %72 = getelementptr inbounds i32, i32* %69, i64 %71
  %73 = load i32, i32* %72, align 4
  %74 = call i32 (i8*, ...) @printf(i8* getelementptr inbounds ([4 x i8], [4 x i8]* @.str.3, i64 0, i64 0), i32 %73)
  br label %75

75:                                               ; preds = %68
  %76 = load i32, i32* %9, align 4
  %77 = add nsw i32 %76, 1
  store i32 %77, i32* %9, align 4
  br label %63

78:                                               ; preds = %63
  %79 = load i32*, i32** %4, align 8
  %80 = load i32, i32* %5, align 4
  %81 = sub nsw i32 %80, 1
  %82 = sext i32 %81 to i64
  %83 = getelementptr inbounds i32, i32* %79, i64 %82
  %84 = load i32, i32* %83, align 4
  %85 = call i32 (i8*, ...) @printf(i8* getelementptr inbounds ([3 x i8], [3 x i8]* @.str.1, i64 0, i64 0), i32 %84)
  %86 = load i32, i32* %3, align 4
  ret i32 %86
}

declare dso_local i32 @printf(i8*, ...) #1


!llvm.module.flags = !{!0}
!llvm.ident = !{!1}

!0 = !{i32 1, !"wchar_size", i32 4}
!1 = !{!"clang version 10.0.0-4ubuntu1 "}
